; Function Attrs: mustprogress uwtable
define hidden noundef ptr @_ZN7datalog19sparse_table_plugin12mk_rename_fnERKNS_10table_baseEjPKj(ptr nocapture noundef nonnull readonly align 8 dereferenceable(56) %this, ptr noundef nonnull align 8 dereferenceable(36) %t, i32 noundef %permutation_cycle_len, ptr noundef %permutation_cycle) unnamed_addr #3 align 2 {
entry:
  %m_kind.i = getelementptr inbounds i8, ptr %t, i64 32
  %0 = load i32, ptr %m_kind.i, align 8
  %m_kind.i2 = getelementptr inbounds i8, ptr %this, i64 8
  %1 = load i32, ptr %m_kind.i2, align 8
  %cmp.not = icmp eq i32 %0, %1
  br i1 %cmp.not, label %if.end, label %return

if.end:                                           ; preds = %entry
  %call3 = tail call noalias noundef ptr @_ZN6memory8allocateEm(i64 noundef 40)
  %m_signature.i = getelementptr inbounds i8, ptr %t, i64 16
  tail call void @_ZN7datalog19sparse_table_plugin9rename_fnC2ERKNS_15table_signatureEjPKj(ptr noundef nonnull align 8 dereferenceable(40) %call3, ptr noundef nonnull align 8 dereferenceable(12) %m_signature.i, i32 noundef %permutation_cycle_len, ptr noundef %permutation_cycle)
  br label %return

return:                                           ; preds = %entry, %if.end
  %retval.0 = phi ptr [ %call3, %if.end ], [ null, %entry ]
  ret ptr %retval.0
}